target datalayout = "e-m:e-p270:32:32-p271:32:32-p272:64:64-i64:64-i128:128-f80:128-n8:16:32:64-S128"
target triple = "x86_64-pc-linux-gnu"

; Function Attrs: mustprogress uwtable
define noundef i64 @_ZN6icu_7717util64_fromDoubleEd(double noundef %0) #0 {
  %2 = alloca double, align 8
  %3 = alloca i64, align 8
  %4 = alloca double, align 8
  %5 = alloca i8, align 1
  store double %0, ptr %2, align 8, !tbaa !75
  call void @llvm.lifetime.start.p0(i64 8, ptr %3) #12
  store i64 0, ptr %3, align 8, !tbaa !52
  %6 = load double, ptr %2, align 8, !tbaa !75
  %7 = call signext i8 @uprv_isNaN_77(double noundef %6)
  %8 = icmp ne i8 %7, 0
  br i1 %8, label %44, label %9

9:                                                ; preds = %1
  call void @llvm.lifetime.start.p0(i64 8, ptr %4) #12
  %10 = call double @uprv_maxMantissa_77()
  store double %10, ptr %4, align 8, !tbaa !75
  %11 = load double, ptr %2, align 8, !tbaa !75
  %12 = load double, ptr %4, align 8, !tbaa !75
  %13 = fneg double %12
  %14 = fcmp olt double %11, %13
  br i1 %14, label %15, label %18

15:                                               ; preds = %9
  %16 = load double, ptr %4, align 8, !tbaa !75
  %17 = fneg double %16
  store double %17, ptr %2, align 8, !tbaa !75
  br label %25

18:                                               ; preds = %9
  %19 = load double, ptr %2, align 8, !tbaa !75
  %20 = load double, ptr %4, align 8, !tbaa !75
  %21 = fcmp ogt double %19, %20
  br i1 %21, label %22, label %24

22:                                               ; preds = %18
  %23 = load double, ptr %4, align 8, !tbaa !75
  store double %23, ptr %2, align 8, !tbaa !75
  br label %24

24:                                               ; preds = %22, %18
  br label %25

25:                                               ; preds = %24, %15
  call void @llvm.lifetime.start.p0(i64 1, ptr %5) #12
  %26 = load double, ptr %2, align 8, !tbaa !75
  %27 = fcmp olt double %26, 0.000000e+00
  %28 = zext i1 %27 to i8
  store i8 %28, ptr %5, align 1, !tbaa !35
  %29 = load i8, ptr %5, align 1, !tbaa !35
  %30 = icmp ne i8 %29, 0
  br i1 %30, label %31, label %34

31:                                               ; preds = %25
  %32 = load double, ptr %2, align 8, !tbaa !75
  %33 = fneg double %32
  store double %33, ptr %2, align 8, !tbaa !75
  br label %34

34:                                               ; preds = %31, %25
  %35 = load double, ptr %2, align 8, !tbaa !75
  %36 = call double @uprv_floor_77(double noundef %35)
  %37 = fptosi double %36 to i64
  store i64 %37, ptr %3, align 8, !tbaa !52
  %38 = load i8, ptr %5, align 1, !tbaa !35
  %39 = icmp ne i8 %38, 0
  br i1 %39, label %40, label %43

40:                                               ; preds = %34
  %41 = load i64, ptr %3, align 8, !tbaa !52
  %42 = sub nsw i64 0, %41
  store i64 %42, ptr %3, align 8, !tbaa !52
  br label %43

43:                                               ; preds = %40, %34
  call void @llvm.lifetime.end.p0(i64 1, ptr %5) #12
  call void @llvm.lifetime.end.p0(i64 8, ptr %4) #12
  br label %44

44:                                               ; preds = %43, %1
  %45 = load i64, ptr %3, align 8, !tbaa !52
  call void @llvm.lifetime.end.p0(i64 8, ptr %3) #12
  ret i64 %45
}