; Function Attrs: mustprogress uwtable
define noundef i64 @_ZN6icu_7717util64_fromDoubleEd(double noundef %0) local_unnamed_addr #0 {
  %2 = tail call signext i8 @uprv_isNaN_77(double noundef %0)
  %.not = icmp eq i8 %2, 0
  br i1 %.not, label %3, label %16

3:                                                ; preds = %1
  %4 = tail call double @uprv_maxMantissa_77()
  %5 = fneg double %4
  %6 = fcmp olt double %0, %5
  br i1 %6, label %10, label %7

7:                                                ; preds = %3
  %8 = fcmp ogt double %0, %4
  br i1 %8, label %9, label %10

9:                                                ; preds = %7
  br label %10

10:                                               ; preds = %3, %7, %9
  %.0 = phi double [ %4, %9 ], [ %0, %7 ], [ %5, %3 ]
  %11 = fcmp olt double %.0, 0.000000e+00
  %12 = fneg double %.0
  %.1 = select i1 %11, double %12, double %.0
  %13 = tail call double @uprv_floor_77(double noundef %.1)
  %14 = fptosi double %13 to i64
  %15 = sub nsw i64 0, %14
  %.114 = select i1 %11, i64 %15, i64 %14
  br label %16

16:                                               ; preds = %10, %1
  %.013 = phi i64 [ 0, %1 ], [ %.114, %10 ]
  ret i64 %.013
}